; Function Attrs: nounwind uwtable
define internal ptr @gc_get_debug(ptr readnone captures(none) %0, ptr readnone captures(none) %1) #0 {
  %3 = tail call align 8 ptr @llvm.threadlocal.address.p0(ptr align 8 @_Py_tss_tstate)
  %4 = load ptr, ptr %3, align 8, !tbaa !4
  %5 = getelementptr inbounds nuw i8, ptr %4, i64 16
  %6 = load ptr, ptr %5, align 8, !tbaa !9
  %7 = getelementptr inbounds nuw i8, ptr %6, i64 7416
  %8 = load i32, ptr %7, align 8, !tbaa !21
  %9 = icmp eq i32 %8, -1
  br i1 %9, label %10, label %12

10:                                               ; preds = %2
  %11 = tail call ptr @PyErr_Occurred() #5
  %.not = icmp eq ptr %11, null
  br i1 %.not, label %12, label %15

12:                                               ; preds = %10, %2
  %13 = sext i32 %8 to i64
  %14 = tail call ptr @PyLong_FromLong(i64 noundef %13) #5
  br label %15

15:                                               ; preds = %10, %12
  %.0 = phi ptr [ null, %10 ], [ %14, %12 ]
  ret ptr %.0
}